; Function Attrs: nounwind uwtable
define hidden ptr @dom_get_ns_resolve_prefix_conflict(ptr noundef %0, ptr noundef %1) local_unnamed_addr #1 {
  %3 = alloca [50 x i8], align 16
  %4 = icmp ne ptr %0, null
  tail call void @llvm.assume(i1 %4)
  %5 = getelementptr inbounds i8, ptr %0, i64 64
  %6 = load ptr, ptr %5, align 8
  %7 = icmp eq ptr %6, null
  br i1 %7, label %.loopexit, label %8

8:                                                ; preds = %2
  %9 = call i32 (ptr, i64, ptr, ...) @ap_php_snprintf(ptr noundef nonnull %3, i64 noundef 50, ptr noundef nonnull @.str.155) #16
  %10 = call ptr @xmlSearchNs(ptr noundef nonnull %6, ptr noundef nonnull %0, ptr noundef nonnull %3) #16
  %.not15 = icmp eq ptr %10, null
  br i1 %.not15, label %._crit_edge, label %.lr.ph

.lr.ph:                                           ; preds = %8, %11
  %.01216 = phi i32 [ %12, %11 ], [ 1, %8 ]
  %exitcond = icmp eq i32 %.01216, 1001
  br i1 %exitcond, label %.loopexit, label %11

11:                                               ; preds = %.lr.ph
  %12 = add nuw nsw i32 %.01216, 1
  %13 = call i32 (ptr, i64, ptr, ...) @ap_php_snprintf(ptr noundef nonnull %3, i64 noundef 50, ptr noundef nonnull @.str.156, i32 noundef %.01216) #16
  %14 = call ptr @xmlSearchNs(ptr noundef nonnull %6, ptr noundef nonnull %0, ptr noundef nonnull %3) #16
  %.not = icmp eq ptr %14, null
  br i1 %.not, label %._crit_edge, label %.lr.ph

._crit_edge:                                      ; preds = %11, %8
  %15 = call ptr @xmlNewNs(ptr noundef nonnull %0, ptr noundef %1, ptr noundef nonnull %3) #16
  br label %.loopexit

.loopexit:                                        ; preds = %.lr.ph, %2, %._crit_edge
  %.013 = phi ptr [ %15, %._crit_edge ], [ null, %2 ], [ null, %.lr.ph ]
  ret ptr %.013
}